target datalayout = "e-m:e-p270:32:32-p271:32:32-p272:64:64-i64:64-i128:128-f80:128-n8:16:32:64-S128"
target triple = "x86_64-pc-linux-gnu"

%class.QString = type { %struct.QArrayDataPointer }
%struct.QArrayDataPointer = type { ptr, ptr, i64 }
%class.TapParameterDialog = type { %class.WiresharkDialog.base, ptr, %class.QMenu, %class.QList.1, i32, ptr }
%class.WiresharkDialog.base = type <{ %class.GeometryStateDialog, ptr, i8, [7 x i8], %class.QString, %class.QList, i32, i8 }>
%class.GeometryStateDialog = type { %class.QDialog, %class.QString, ptr }
%class.QDialog = type { %class.QWidget }
%class.QWidget = type { %class.QObject, %class.QPaintDevice.base, ptr }
%class.QObject = type { ptr, %class.QScopedPointer }
%class.QScopedPointer = type { ptr }
%class.QPaintDevice.base = type <{ ptr, i16 }>
%class.QList = type { %struct.QArrayDataPointer.0 }
%struct.QArrayDataPointer.0 = type { ptr, ptr, i64 }
%class.QMenu = type { %class.QWidget }
%class.QList.1 = type { %struct.QArrayDataPointer.4 }
%struct.QArrayDataPointer.4 = type { ptr, ptr, i64 }
%class.Ui_TapParameterDialog = type { ptr, ptr, ptr, ptr, ptr, ptr, ptr, ptr, ptr, ptr }
%class.QModelIndex = type { i32, i32, i64, ptr }

; Function Attrs: inlinehint mustprogress nounwind null_pointer_is_valid sspstrong uwtable
define linkonce_odr void @_ZN11QModelIndexC2Ev(ptr noundef align 8 dereferenceable_or_null(24) %0) unnamed_addr #4 comdat align 2 {
  %2 = alloca ptr, align 8
  store ptr %0, ptr %2, align 8
  %3 = load ptr, ptr %2, align 8
  %4 = getelementptr inbounds nuw %class.QModelIndex, ptr %3, i32 0, i32 0
  store i32 -1, ptr %4, align 8
  %5 = getelementptr inbounds nuw %class.QModelIndex, ptr %3, i32 0, i32 1
  store i32 -1, ptr %5, align 4
  %6 = getelementptr inbounds nuw %class.QModelIndex, ptr %3, i32 0, i32 2
  store i64 0, ptr %6, align 8
  %7 = getelementptr inbounds nuw %class.QModelIndex, ptr %3, i32 0, i32 3
  store ptr null, ptr %7, align 8
  ret void
}

; Function Attrs: mustprogress null_pointer_is_valid sspstrong uwtable
define void @_ZN18TapParameterDialog13drawTreeItemsEv(ptr noundef align 8 dereferenceable_or_null(232) %0) #5 align 2 {
  %2 = alloca ptr, align 8
  %3 = alloca %class.QModelIndex, align 8
  %4 = alloca i32, align 4
  store ptr %0, ptr %2, align 8
  %5 = load ptr, ptr %2, align 8
  %6 = getelementptr inbounds nuw %class.TapParameterDialog, ptr %5, i32 0, i32 1
  %7 = load ptr, ptr %6, align 8
  %8 = getelementptr inbounds nuw %class.Ui_TapParameterDialog, ptr %7, i32 0, i32 3
  %9 = load ptr, ptr %8, align 8
  %10 = call noundef ptr @_ZNK17QAbstractItemView5modelEv(ptr noundef align 8 dereferenceable_or_null(40) %9)
  call void @llvm.lifetime.start.p0(i64 24, ptr %3) #2
  call void @_ZN11QModelIndexC2Ev(ptr noundef align 8 dereferenceable_or_null(24) %3) #2
  %11 = load ptr, ptr %10, align 8
  %12 = getelementptr inbounds ptr, ptr %11, i64 15
  %13 = load ptr, ptr %12, align 8
  %14 = call noundef i32 %13(ptr noundef align 8 dereferenceable_or_null(16) %10, ptr noundef align 8 dereferenceable(24) %3)
  %15 = icmp slt i32 %14, 100
  call void @llvm.lifetime.end.p0(i64 24, ptr %3) #2
  br i1 %15, label %16, label %21

16:                                               ; preds = %1
  %17 = getelementptr inbounds nuw %class.TapParameterDialog, ptr %5, i32 0, i32 1
  %18 = load ptr, ptr %17, align 8
  %19 = getelementptr inbounds nuw %class.Ui_TapParameterDialog, ptr %18, i32 0, i32 3
  %20 = load ptr, ptr %19, align 8
  call void @_ZN9QTreeView9expandAllEv(ptr noundef align 8 dereferenceable_or_null(40) %20)
  br label %21

21:                                               ; preds = %16, %1
  call void @llvm.lifetime.start.p0(i64 4, ptr %4) #2
  store i32 0, ptr %4, align 4
  br label %22

22:                                               ; preds = %37, %21
  %23 = load i32, ptr %4, align 4
  %24 = getelementptr inbounds nuw %class.TapParameterDialog, ptr %5, i32 0, i32 1
  %25 = load ptr, ptr %24, align 8
  %26 = getelementptr inbounds nuw %class.Ui_TapParameterDialog, ptr %25, i32 0, i32 3
  %27 = load ptr, ptr %26, align 8
  %28 = call noundef i32 @_ZNK11QTreeWidget11columnCountEv(ptr noundef align 8 dereferenceable_or_null(40) %27)
  %29 = icmp slt i32 %23, %28
  br i1 %29, label %31, label %30

30:                                               ; preds = %22
  call void @llvm.lifetime.end.p0(i64 4, ptr %4) #2
  br label %40

31:                                               ; preds = %22
  %32 = getelementptr inbounds nuw %class.TapParameterDialog, ptr %5, i32 0, i32 1
  %33 = load ptr, ptr %32, align 8
  %34 = getelementptr inbounds nuw %class.Ui_TapParameterDialog, ptr %33, i32 0, i32 3
  %35 = load ptr, ptr %34, align 8
  %36 = load i32, ptr %4, align 4
  call void @_ZN9QTreeView22resizeColumnToContentsEi(ptr noundef align 8 dereferenceable_or_null(40) %35, i32 noundef %36)
  br label %37

37:                                               ; preds = %31
  %38 = load i32, ptr %4, align 4
  %39 = add i32 %38, 1
  store i32 %39, ptr %4, align 4
  br label %22, !llvm.loop !19

40:                                               ; preds = %30
  ret void
}