; Function Attrs: mustprogress null_pointer_is_valid sspstrong uwtable
define void @_ZN18TapParameterDialog13drawTreeItemsEv(ptr noundef readonly align 8 captures(none) dereferenceable_or_null(232) %0) local_unnamed_addr #3 align 2 {
  %2 = alloca %class.QModelIndex, align 8
  %3 = getelementptr inbounds nuw i8, ptr %0, i64 144
  %4 = load ptr, ptr %3, align 8
  %5 = getelementptr inbounds nuw i8, ptr %4, i64 24
  %6 = load ptr, ptr %5, align 8
  %7 = tail call noundef ptr @_ZNK17QAbstractItemView5modelEv(ptr noundef align 8 dereferenceable_or_null(40) %6)
  call void @llvm.lifetime.start.p0(i64 24, ptr nonnull %2) #31
  store i32 -1, ptr %2, align 8
  %8 = getelementptr inbounds nuw i8, ptr %2, i64 4
  store i32 -1, ptr %8, align 4
  %9 = getelementptr inbounds nuw i8, ptr %2, i64 8
  call void @llvm.memset.p0.i64(ptr noundef nonnull align 8 dereferenceable(16) %9, i8 0, i64 16, i1 false)
  %10 = load ptr, ptr %7, align 8
  %11 = getelementptr inbounds nuw i8, ptr %10, i64 120
  %12 = load ptr, ptr %11, align 8
  %13 = call noundef i32 %12(ptr noundef align 8 dereferenceable_or_null(16) %7, ptr noundef nonnull align 8 dereferenceable(24) %2)
  %14 = icmp slt i32 %13, 100
  call void @llvm.lifetime.end.p0(i64 24, ptr nonnull %2) #31
  br i1 %14, label %15, label %19

15:                                               ; preds = %1
  %16 = load ptr, ptr %3, align 8
  %17 = getelementptr inbounds nuw i8, ptr %16, i64 24
  %18 = load ptr, ptr %17, align 8
  call void @_ZN9QTreeView9expandAllEv(ptr noundef align 8 dereferenceable_or_null(40) %18)
  br label %19

19:                                               ; preds = %15, %1
  %20 = load ptr, ptr %3, align 8
  %21 = getelementptr inbounds nuw i8, ptr %20, i64 24
  %22 = load ptr, ptr %21, align 8
  %23 = call noundef i32 @_ZNK11QTreeWidget11columnCountEv(ptr noundef align 8 dereferenceable_or_null(40) %22)
  %24 = icmp sgt i32 %23, 0
  br i1 %24, label %.lr.ph, label %._crit_edge

._crit_edge:                                      ; preds = %.lr.ph, %19
  ret void

.lr.ph:                                           ; preds = %19, %.lr.ph
  %.03 = phi i32 [ %28, %.lr.ph ], [ 0, %19 ]
  %25 = load ptr, ptr %3, align 8
  %26 = getelementptr inbounds nuw i8, ptr %25, i64 24
  %27 = load ptr, ptr %26, align 8
  call void @_ZN9QTreeView22resizeColumnToContentsEi(ptr noundef align 8 dereferenceable_or_null(40) %27, i32 noundef %.03)
  %28 = add nuw nsw i32 %.03, 1
  %29 = load ptr, ptr %3, align 8
  %30 = getelementptr inbounds nuw i8, ptr %29, i64 24
  %31 = load ptr, ptr %30, align 8
  %32 = call noundef i32 @_ZNK11QTreeWidget11columnCountEv(ptr noundef align 8 dereferenceable_or_null(40) %31)
  %33 = icmp slt i32 %28, %32
  br i1 %33, label %.lr.ph, label %._crit_edge, !llvm.loop !101
}